     1 00000000                                 ;EasyOS day2
     2 00000000                                 
     3  = 0000000A                                  CYLS EQU 10
     4                                              ORG 0x7C00  ;指明程序的装载地址
     5 00007C00                                 
     6 00007C00                                 ;标准FAT12格式软盘的专用代码
     7 00007C00 EB 4C                               JMP ENTRY
     8 00007C02 90                                  DB 0x90
     9 00007C03 45 41 53 59 4F 53 20 20             DB "EASYOS  ";启动区的名称(8字节)
    10 00007C0B 0200                                DW 512       ;每个扇区大小(必须512字节)
    11 00007C0D 01                                  DB 1         ;簇大小(必须1扇区)
    12 00007C0E 0001                                DW 1         ;FAT的起始位置(一般从第一个扇区开始)
    13 00007C10 02                                  DB 2         ;FAT的个数(必须为2)
    14 00007C11 00E0                                DW 224       ;根目录的大小(一般设成224项)
    15 00007C13 0B40                                DW 2880      ;该磁盘的大小(必须时2880扇区)
    16 00007C15 F0                                  DB 0xF0      ;该磁盘的种类(必须是0XF0)
    17 00007C16 0009                                DW 9         ;FAT的长度(必须是9扇区)
    18 00007C18 0012                                DW 18        ;1个磁道有几个扇区(必须是18)
    19 00007C1A 0002                                DW 2         ;磁头数(必须是2)
    20 00007C1C 0002                                DW 2         ;不使用分区,必须是0
    21 00007C1E 00000B40                            DD 2880      ;重写一次磁盘大小
    22 00007C22 00 00 29                            DB 0,0,0x29  ;意义不明,固定
    23 00007C25 FFFFFFFF                            DD 0xFFFFFFFF;(可能是)卷标号码
    24 00007C29 45 41 53 59 4F 53 20 20 20 20       DB "EASYOS     ";磁盘的名称(11字节)
       00007C33 20 
    25 00007C34 46 41 54 31 32 20 20 20             DB "FAT12   ";磁盘格式名称(8字节)
    26 00007C3C 00 00 00 00 00 00 00 00 00 00       TIMES 18 DB 0     ;先空出18字节
       00007C46 00 00 00 00 00 00 00 00 
    27 00007C4E                                 
    28 00007C4E                                 ;程序主体
    29 00007C4E                                 ENTRY:
    30 00007C4E B8 0000                             MOV AX,0    ;初始化寄存器
    31 00007C51 8E D0                               MOV SS,AX
    32 00007C53 BC 7C00                             MOV SP,0x7C00
    33 00007C56 8E D8                               MOV DS,AX
    34 00007C58                                 
    35 00007C58                                 ;读磁盘
    36 00007C58 B8 0820                             MOV AX,0x0820
    37 00007C5B 8E C0                               MOV ES,AX
    38 00007C5D B5 00                               MOV CH,0    ;柱面0
    39 00007C5F B6 00                               MOV DH,0    ;磁头0
    40 00007C61 B1 02                               MOV CL,2    ;扇区2
    41 00007C63                                 
    42 00007C63                                 READLOOP:
    43 00007C63 BE 0000                             MOV SI,0    ;记录失败次数的寄存器
    44 00007C66                                 RETRY:
    45 00007C66 B4 02                               MOV AH,0x02 ;AH=0x02:读盘
    46 00007C68 B0 01                               MOV AL,1    ;1个扇区
    47 00007C6A BB 0000                             MOV BX,0
    48 00007C6D B2 00                               MOV DL,0x00 ;A驱动器
    49 00007C6F CD 13                               INT 0x13    ;调用磁盘BIOS
    50 00007C71 73 0E                               JNC NEXT    ;没出错的话跳转到FIN
    51 00007C73 46                                  INC SI      ;加一
    52 00007C74 83 FE 05                            CMP SI,5    ;和5比较
    53 00007C77 73 34                               JAE ERROR   ;SI>=5,跳转到ERROR
    54 00007C79 B4 00                               MOV AH,0x00
    55 00007C7B B2 00                               MOV DL,0x00 ;A驱动器
    56 00007C7D CD 13                               INT 0x13    ;重置驱动器
    57 00007C7F EB E5                               JMP RETRY
    58 00007C81                                 
    59 00007C81                                 NEXT:
    60 00007C81 8C C0                               MOV AX,ES   ;把内存地址后移0x20
    61 00007C83 05 0020                             ADD AX,0x0020
    62 00007C86 8E C0                               MOV ES,AX
    63 00007C88 FE C1                               INC CL    ;读下一扇区
    64 00007C8A 80 F9 12                            CMP CL,18   ;读到18扇区
    65 00007C8D 76 D4                               JBE READLOOP
    66 00007C8F B1 01                               MOV CL,1
    67 00007C91 80 C6 01                            ADD DH,1
    68 00007C94 80 FE 02                            CMP DH,2
    69 00007C97 72 CA                               JB READLOOP ;读反面的柱面
    70 00007C99 B6 00                               MOV DH,0
    71 00007C9B 80 C5 01                            ADD CH,1
    72 00007C9E 80 FD 0A                            CMP CH,CYLS
    73 00007CA1 72 C0                               JB READLOOP ;读取10个柱面
    74 00007CA3                                 
    75 00007CA3 88 2E 0FF0                          MOV [0x0FF0],CH
    76 00007CA7 E9 4756                             JMP 0xC400
    77 00007CAA                                 
    78 00007CAA                                 FIN:
    79 00007CAA F4                                  HLT         ;让CPU停止,等待命令
    80 00007CAB EB FD                               JMP FIN     ;无限循环
    81 00007CAD                                 ERROR:
    82 00007CAD BE 7CC2                             MOV SI,MSG
    83 00007CB0                                 PUTLOOP:
    84 00007CB0 8A 04                               MOV AL,[SI]
    85 00007CB2 83 C6 01                            ADD SI,1
    86 00007CB5 3C 00                               CMP AL,0
    87 00007CB7 74 F1                               JE FIN
    88 00007CB9 B4 0E                               MOV AH,0x0E ;显示一个文字
    89 00007CBB BB 000F                             MOV BX,15   ;指定字符颜色
    90 00007CBE CD 10                               INT 0x10    ;调用显卡BIOS
    91 00007CC0 EB EE                               JMP PUTLOOP
    92 00007CC2                                 MSG:
    93 00007CC2 0A 0A                               DB 0x0A,0x0A;换行两次
    94 00007CC4 4C 6F 61 64 20 65 72 72 6F 72       DB "Load error"
    95 00007CCE 0A                                  DB 0x0A     ;换行
    96 00007CCF 00                                  DB 0
    97 00007CD0                                 
    98 00007CD0 00 00 00 00 00 00 00 00 00 00       TIMES 510-($-$$) DB 0;填写0x00,直到0x7DFE
       00007CDA 00 00 00 00 00 00 00 00 00 00 
       00007CE4 00 00 00 00 00 00 00 00 00 00 
       00007CEE 00 00 00 00 00 00 00 00 00 00 
       00007CF8 00 00 00 00 00 00 00 00 00 00 
       00007D02 00 00 00 00 00 00 00 00 00 00 
       00007D0C 00 00 00 00 00 00 00 00 00 00 
       00007D16 00 00 00 00 00 00 00 00 00 00 
       00007D20 00 00 00 00 00 00 00 00 00 00 
       00007D2A 00 00 00 00 00 00 00 00 00 00 
       00007D34 00 00 00 00 00 00 00 00 00 00 
       00007D3E 00 00 00 00 00 00 00 00 00 00 
       00007D48 00 00 00 00 00 00 00 00 00 00 
       00007D52 00 00 00 00 00 00 00 00 00 00 
       00007D5C 00 00 00 00 00 00 00 00 00 00 
       00007D66 00 00 00 00 00 00 00 00 00 00 
       00007D70 00 00 00 00 00 00 00 00 00 00 
       00007D7A 00 00 00 00 00 00 00 00 00 00 
       00007D84 00 00 00 00 00 00 00 00 00 00 
       00007D8E 00 00 00 00 00 00 00 00 00 00 
       00007D98 00 00 00 00 00 00 00 00 00 00 
       00007DA2 00 00 00 00 00 00 00 00 00 00 
       00007DAC 00 00 00 00 00 00 00 00 00 00 
       00007DB6 00 00 00 00 00 00 00 00 00 00 
       00007DC0 00 00 00 00 00 00 00 00 00 00 
       00007DCA 00 00 00 00 00 00 00 00 00 00 
       00007DD4 00 00 00 00 00 00 00 00 00 00 
       00007DDE 00 00 00 00 00 00 00 00 00 00 
       00007DE8 00 00 00 00 00 00 00 00 00 00 
       00007DF2 00 00 00 00 00 00 00 00 00 00 
       00007DFC 00 00 
    99 00007DFE 55 AA                               DB 0x55,0xAA
